target datalayout = "e-m:e-p270:32:32-p271:32:32-p272:64:64-i64:64-i128:128-f80:128-n8:16:32:64-S128"
target triple = "x86_64-pc-linux-gnu"

%struct._packet_info = type { ptr, ptr, i32, i32, %struct.nstime_t, %struct.nstime_t, %struct.nstime_t, i8, ptr, ptr, ptr, ptr, %struct._address, %struct._address, %struct._address, %struct._address, %struct._address, %struct._address, i32, ptr, i8, [3 x i8], %struct.anon, i32, i32, i32, i32, ptr, i8, ptr, ptr, i16, i16, i32, i32, i16, i32, i32, ptr, ptr, ptr, i8, i8, i16, i16, i16, i32, i16, i16, ptr, ptr, ptr, ptr, ptr, i32, i32 }
%struct.nstime_t = type { i64, i32 }
%struct._address = type { i32, i32, ptr, ptr }
%struct.anon = type { i8, [3 x i8] }

@.str.2598 = private unnamed_addr constant [19 x i8] c"ObjectIdentifier: \00", align 1
@propertyArrayIndex = internal global i32 -1, align 4

; Function Attrs: nounwind null_pointer_is_valid sspstrong uwtable
define internal zeroext i1 @tag_is_opening(i8 noundef zeroext %0) #3 {
  %2 = alloca i8, align 1
  store i8 %0, ptr %2, align 1
  %3 = load i8, ptr %2, align 1
  %4 = zext i8 %3 to i32
  %5 = and i32 %4, 7
  %6 = icmp eq i32 %5, 6
  ret i1 %6
}

; Function Attrs: nounwind null_pointer_is_valid sspstrong uwtable
define internal zeroext i1 @tag_is_closing(i8 noundef zeroext %0) #3 {
  %2 = alloca i8, align 1
  store i8 %0, ptr %2, align 1
  %3 = load i8, ptr %2, align 1
  %4 = zext i8 %3 to i32
  %5 = and i32 %4, 7
  %6 = icmp eq i32 %5, 7
  ret i1 %6
}

; Function Attrs: null_pointer_is_valid sspstrong uwtable
define internal i32 @fTagHeader(ptr noundef %0, ptr noundef %1, i32 noundef %2, ptr noundef %3, ptr noundef %4, ptr noundef %5) #0 {
  %7 = alloca ptr, align 8
  %8 = alloca ptr, align 8
  %9 = alloca i32, align 4
  %10 = alloca ptr, align 8
  %11 = alloca ptr, align 8
  %12 = alloca ptr, align 8
  store ptr %0, ptr %7, align 8
  store ptr %1, ptr %8, align 8
  store i32 %2, ptr %9, align 4
  store ptr %3, ptr %10, align 8
  store ptr %4, ptr %11, align 8
  store ptr %5, ptr %12, align 8
  %13 = load ptr, ptr %7, align 8
  %14 = load ptr, ptr %8, align 8
  %15 = load i32, ptr %9, align 4
  %16 = load ptr, ptr %10, align 8
  %17 = load ptr, ptr %11, align 8
  %18 = load ptr, ptr %12, align 8
  %19 = call i32 @fTagHeaderTree(ptr noundef %13, ptr noundef %14, ptr noundef null, i32 noundef %15, ptr noundef %16, ptr noundef %17, ptr noundef %18)
  ret i32 %19
}

; Function Attrs: null_pointer_is_valid sspstrong uwtable
define internal i32 @fPropertyReference(ptr noundef %0, ptr noundef %1, ptr noundef %2, i32 noundef %3, i8 noundef zeroext %4, i8 noundef zeroext %5) #0 {
  %7 = alloca i32, align 4
  %8 = alloca ptr, align 8
  %9 = alloca ptr, align 8
  %10 = alloca ptr, align 8
  %11 = alloca i32, align 4
  %12 = alloca i8, align 1
  %13 = alloca i8, align 1
  %14 = alloca i32, align 4
  %15 = alloca i8, align 1
  %16 = alloca i8, align 1
  %17 = alloca i32, align 4
  %18 = alloca i32, align 4
  store ptr %0, ptr %8, align 8
  store ptr %1, ptr %9, align 8
  store ptr %2, ptr %10, align 8
  store i32 %3, ptr %11, align 4
  store i8 %4, ptr %12, align 1
  store i8 %5, ptr %13, align 1
  call void @llvm.lifetime.start.p0(i64 4, ptr %14) #7
  store i32 0, ptr %14, align 4
  call void @llvm.lifetime.start.p0(i64 1, ptr %15) #7
  call void @llvm.lifetime.start.p0(i64 1, ptr %16) #7
  call void @llvm.lifetime.start.p0(i64 4, ptr %17) #7
  store i32 -1, ptr @propertyArrayIndex, align 4
  br label %19

19:                                               ; preds = %70, %6
  %20 = load ptr, ptr %8, align 8
  %21 = load i32, ptr %11, align 4
  %22 = call i32 @tvb_reported_length_remaining(ptr noundef %20, i32 noundef %21)
  %23 = icmp sgt i32 %22, 0
  br i1 %23, label %24, label %71

24:                                               ; preds = %19
  %25 = load i32, ptr %11, align 4
  store i32 %25, ptr %14, align 4
  %26 = load ptr, ptr %8, align 8
  %27 = load ptr, ptr %9, align 8
  %28 = load i32, ptr %11, align 4
  %29 = call i32 @fTagHeader(ptr noundef %26, ptr noundef %27, i32 noundef %28, ptr noundef %15, ptr noundef %16, ptr noundef %17)
  %30 = load i8, ptr %16, align 1
  %31 = call zeroext i1 @tag_is_closing(i8 noundef zeroext %30)
  br i1 %31, label %32, label %34

32:                                               ; preds = %24
  %33 = load i32, ptr %11, align 4
  store i32 %33, ptr %7, align 4
  store i32 1, ptr %18, align 4
  br label %73

34:                                               ; preds = %24
  %35 = load i8, ptr %16, align 1
  %36 = call zeroext i1 @tag_is_opening(i8 noundef zeroext %35)
  br i1 %36, label %37, label %39

37:                                               ; preds = %34
  %38 = load i32, ptr %11, align 4
  store i32 %38, ptr %7, align 4
  store i32 1, ptr %18, align 4
  br label %73

39:                                               ; preds = %34
  br label %40

40:                                               ; preds = %39
  %41 = load i8, ptr %15, align 1
  %42 = zext i8 %41 to i32
  %43 = load i8, ptr %12, align 1
  %44 = zext i8 %43 to i32
  %45 = sub i32 %42, %44
  switch i32 %45, label %63 [
    i32 0, label %46
    i32 1, label %52
  ]

46:                                               ; preds = %40
  %47 = load ptr, ptr %8, align 8
  %48 = load ptr, ptr %9, align 8
  %49 = load ptr, ptr %10, align 8
  %50 = load i32, ptr %11, align 4
  %51 = call i32 @fPropertyIdentifier(ptr noundef %47, ptr noundef %48, ptr noundef %49, i32 noundef %50)
  store i32 %51, ptr %11, align 4
  br label %65

52:                                               ; preds = %40
  %53 = load ptr, ptr %8, align 8
  %54 = load ptr, ptr %9, align 8
  %55 = load ptr, ptr %10, align 8
  %56 = load i32, ptr %11, align 4
  %57 = call i32 @fPropertyArrayIndex(ptr noundef %53, ptr noundef %54, ptr noundef %55, i32 noundef %56)
  store i32 %57, ptr %11, align 4
  %58 = load i8, ptr %13, align 1
  %59 = zext i8 %58 to i32
  %60 = icmp ne i32 %59, 0
  br i1 %60, label %61, label %62

61:                                               ; preds = %52
  br label %65

62:                                               ; preds = %52
  br label %63

63:                                               ; preds = %40, %62
  %64 = load i32, ptr %11, align 4
  store i32 %64, ptr %14, align 4
  br label %65

65:                                               ; preds = %63, %61, %46
  %66 = load i32, ptr %11, align 4
  %67 = load i32, ptr %14, align 4
  %68 = icmp ule i32 %66, %67
  br i1 %68, label %69, label %70

69:                                               ; preds = %65
  br label %71

70:                                               ; preds = %65
  br label %19, !llvm.loop !24

71:                                               ; preds = %69, %19
  %72 = load i32, ptr %11, align 4
  store i32 %72, ptr %7, align 4
  store i32 1, ptr %18, align 4
  br label %73

73:                                               ; preds = %71, %37, %32
  call void @llvm.lifetime.end.p0(i64 4, ptr %17) #7
  call void @llvm.lifetime.end.p0(i64 1, ptr %16) #7
  call void @llvm.lifetime.end.p0(i64 1, ptr %15) #7
  call void @llvm.lifetime.end.p0(i64 4, ptr %14) #7
  %74 = load i32, ptr %7, align 4
  ret i32 %74
}

; Function Attrs: null_pointer_is_valid sspstrong uwtable
define internal i32 @fTagNo(ptr noundef %0, i32 noundef %1) #0 {
  %3 = alloca ptr, align 8
  %4 = alloca i32, align 4
  store ptr %0, ptr %3, align 8
  store i32 %1, ptr %4, align 4
  %5 = load ptr, ptr %3, align 8
  %6 = load i32, ptr %4, align 4
  %7 = call zeroext i8 @tvb_get_uint8(ptr noundef %5, i32 noundef %6)
  %8 = zext i8 %7 to i32
  %9 = ashr i32 %8, 4
  ret i32 %9
}

; Function Attrs: null_pointer_is_valid sspstrong uwtable
define internal i32 @fBACnetObjectPropertyReference(ptr noundef %0, ptr noundef %1, ptr noundef %2, i32 noundef %3) #0 {
  %5 = alloca ptr, align 8
  %6 = alloca ptr, align 8
  %7 = alloca ptr, align 8
  %8 = alloca i32, align 4
  %9 = alloca i32, align 4
  store ptr %0, ptr %5, align 8
  store ptr %1, ptr %6, align 8
  store ptr %2, ptr %7, align 8
  store i32 %3, ptr %8, align 4
  call void @llvm.lifetime.start.p0(i64 4, ptr %9) #7
  store i32 0, ptr %9, align 4
  br label %10

10:                                               ; preds = %42, %4
  %11 = load ptr, ptr %5, align 8
  %12 = load i32, ptr %8, align 4
  %13 = call i32 @tvb_reported_length_remaining(ptr noundef %11, i32 noundef %12)
  %14 = icmp sgt i32 %13, 0
  br i1 %14, label %15, label %43

15:                                               ; preds = %10
  %16 = load i32, ptr %8, align 4
  store i32 %16, ptr %9, align 4
  %17 = load ptr, ptr %5, align 8
  %18 = load i32, ptr %8, align 4
  %19 = call i32 @fTagNo(ptr noundef %17, i32 noundef %18)
  switch i32 %19, label %35 [
    i32 0, label %20
    i32 1, label %26
  ]

20:                                               ; preds = %15
  %21 = load ptr, ptr %5, align 8
  %22 = load ptr, ptr %6, align 8
  %23 = load ptr, ptr %7, align 8
  %24 = load i32, ptr %8, align 4
  %25 = call i32 @fObjectIdentifier(ptr noundef %21, ptr noundef %22, ptr noundef %23, i32 noundef %24, ptr noundef @.str.2598)
  store i32 %25, ptr %8, align 4
  br label %37

26:                                               ; preds = %15
  %27 = load ptr, ptr %5, align 8
  %28 = load ptr, ptr %6, align 8
  %29 = load ptr, ptr %7, align 8
  %30 = load i32, ptr %8, align 4
  %31 = call i32 @fPropertyReference(ptr noundef %27, ptr noundef %28, ptr noundef %29, i32 noundef %30, i8 noundef zeroext 1, i8 noundef zeroext 0)
  store i32 %31, ptr %8, align 4
  %32 = load ptr, ptr %6, align 8
  %33 = getelementptr inbounds nuw %struct._packet_info, ptr %32, i32 0, i32 1
  %34 = load ptr, ptr %33, align 8
  call void @col_set_writable(ptr noundef %34, i32 noundef 25, i1 noundef zeroext false)
  br label %35

35:                                               ; preds = %15, %26
  %36 = load i32, ptr %8, align 4
  store i32 %36, ptr %9, align 4
  br label %37

37:                                               ; preds = %35, %20
  %38 = load i32, ptr %8, align 4
  %39 = load i32, ptr %9, align 4
  %40 = icmp ule i32 %38, %39
  br i1 %40, label %41, label %42

41:                                               ; preds = %37
  br label %43

42:                                               ; preds = %37
  br label %10, !llvm.loop !31

43:                                               ; preds = %41, %10
  %44 = load i32, ptr %8, align 4
  call void @llvm.lifetime.end.p0(i64 4, ptr %9) #7
  ret i32 %44
}