; Function Attrs: null_pointer_is_valid sspstrong uwtable
define internal fastcc i32 @fBACnetObjectPropertyReference(ptr noundef nonnull %0, ptr noundef %1, ptr noundef %2, i32 noundef %3) unnamed_addr #0 {
  %5 = alloca i8, align 1
  %6 = alloca i8, align 1
  %7 = alloca i32, align 4
  br label %8

8:                                                ; preds = %28, %4
  %.017 = phi i32 [ %3, %4 ], [ %29, %28 ]
  %9 = tail call i32 @tvb_reported_length_remaining(ptr noundef nonnull %0, i32 noundef %.017)
  %10 = icmp sgt i32 %9, 0
  br i1 %10, label %11, label %.thread

11:                                               ; preds = %8
  %12 = tail call zeroext i8 @tvb_get_uint8(ptr noundef nonnull %0, i32 noundef %.017)
  %13 = lshr i8 %12, 4
  switch i8 %13, label %.thread [
    i8 0, label %28
    i8 1, label %14
  ]

14:                                               ; preds = %11
  call void @llvm.lifetime.start.p0(i64 1, ptr nonnull %5) #6
  call void @llvm.lifetime.start.p0(i64 1, ptr nonnull %6) #6
  call void @llvm.lifetime.start.p0(i64 4, ptr nonnull %7) #6
  store i32 -1, ptr @propertyArrayIndex, align 4
  br label %.split.us.i

.split.us.i:                                      ; preds = %24, %14
  %.023.us.i = phi i32 [ %25, %24 ], [ %.017, %14 ]
  %15 = tail call i32 @tvb_reported_length_remaining(ptr noundef nonnull %0, i32 noundef %.023.us.i)
  %16 = icmp sgt i32 %15, 0
  br i1 %16, label %17, label %fPropertyReference.exit

17:                                               ; preds = %.split.us.i
  %18 = call fastcc range(i32 1, 8) i32 @fTagHeaderTree(ptr noundef nonnull %0, ptr noundef %1, ptr noundef null, i32 noundef %.023.us.i, ptr noundef nonnull %5, ptr noundef nonnull %6, ptr noundef nonnull %7)
  %19 = load i8, ptr %6, align 1
  %20 = and i8 %19, 6
  %switch.us.i = icmp eq i8 %20, 6
  br i1 %switch.us.i, label %fPropertyReference.exit, label %21

21:                                               ; preds = %17
  %22 = load i8, ptr %5, align 1
  switch i8 %22, label %fPropertyReference.exit [
    i8 1, label %24
    i8 2, label %.thread30.i
  ]

.thread30.i:                                      ; preds = %21
  %23 = tail call fastcc i32 @fPropertyArrayIndex(ptr noundef nonnull %0, ptr noundef %1, ptr noundef %2, i32 noundef %.023.us.i)
  br label %fPropertyReference.exit

24:                                               ; preds = %21
  %25 = tail call fastcc i32 @fPropertyIdentifier(ptr noundef nonnull %0, ptr noundef %1, ptr noundef %2, i32 noundef %.023.us.i)
  %.not24.us.i = icmp ugt i32 %25, %.023.us.i
  br i1 %.not24.us.i, label %.split.us.i, label %fPropertyReference.exit, !llvm.loop !19

fPropertyReference.exit:                          ; preds = %.split.us.i, %17, %21, %24, %.thread30.i
  %.us-phi.i = phi i32 [ %23, %.thread30.i ], [ %.023.us.i, %17 ], [ %.023.us.i, %21 ], [ %.023.us.i, %.split.us.i ], [ %25, %24 ]
  call void @llvm.lifetime.end.p0(i64 4, ptr nonnull %7) #6
  call void @llvm.lifetime.end.p0(i64 1, ptr nonnull %6) #6
  call void @llvm.lifetime.end.p0(i64 1, ptr nonnull %5) #6
  %26 = getelementptr inbounds nuw i8, ptr %1, i64 8
  %27 = load ptr, ptr %26, align 8
  tail call void @col_set_writable(ptr noundef %27, i32 noundef 25, i1 noundef zeroext false)
  br label %.thread

28:                                               ; preds = %11
  %29 = tail call fastcc i32 @fObjectIdentifier(ptr noundef %0, ptr noundef %1, ptr noundef %2, i32 noundef %.017, ptr noundef nonnull @.str.2598)
  %.not = icmp ugt i32 %29, %.017
  br i1 %.not, label %8, label %.thread, !llvm.loop !119

.thread:                                          ; preds = %11, %28, %8, %fPropertyReference.exit
  %.1 = phi i32 [ %.us-phi.i, %fPropertyReference.exit ], [ %.017, %11 ], [ %.017, %8 ], [ %29, %28 ]
  ret i32 %.1
}